target datalayout = "e-m:e-p270:32:32-p271:32:32-p272:64:64-i64:64-i128:128-f80:128-n8:16:32:64-S128"
target triple = "x86_64-pc-linux-gnu"

%struct.FunctionCallInfoBaseData = type { ptr, ptr, ptr, i32, i8, i16, [0 x %struct.NullableDatum] }
%struct.NullableDatum = type { i64, i8 }
%struct.GISTENTRY = type { i64, ptr, ptr, i16, i8 }
%struct.PageHeaderData = type { %struct.PageXLogRecPtr, i16, i16, i16, i16, i16, i16, i32, [0 x %struct.ItemIdData] }
%struct.PageXLogRecPtr = type { i32, i32 }
%struct.ItemIdData = type { i32 }
%struct.GISTPageOpaqueData = type { %struct.PageXLogRecPtr, i32, i16, i16 }

@.str = private unnamed_addr constant [33 x i8] c"unrecognized strategy number: %d\00", align 1
@.str.1 = private unnamed_addr constant [11 x i8] c"gistproc.c\00", align 1
@__func__.gist_box_leaf_consistent = private unnamed_addr constant [25 x i8] c"gist_box_leaf_consistent\00", align 1

; Function Attrs: inlinehint nounwind uwtable
define internal zeroext i1 @DatumGetBool(i64 noundef %0) #2 {
  %2 = alloca i64, align 8
  store i64 %0, ptr %2, align 8
  %3 = load i64, ptr %2, align 8
  %4 = icmp ne i64 %3, 0
  ret i1 %4
}

; Function Attrs: inlinehint nounwind uwtable
define internal i64 @PointerGetDatum(ptr noundef %0) #2 {
  %2 = alloca ptr, align 8
  store ptr %0, ptr %2, align 8
  %3 = load ptr, ptr %2, align 8
  %4 = ptrtoint ptr %3 to i64
  ret i64 %4
}

; Function Attrs: nounwind uwtable
define internal zeroext i1 @gist_box_leaf_consistent(ptr noundef %0, ptr noundef %1, i16 noundef zeroext %2) #0 {
  %4 = alloca ptr, align 8
  %5 = alloca ptr, align 8
  %6 = alloca i16, align 2
  %7 = alloca i8, align 1
  store ptr %0, ptr %4, align 8
  store ptr %1, ptr %5, align 8
  store i16 %2, ptr %6, align 2
  call void @llvm.lifetime.start.p0(i64 1, ptr %7) #10
  %8 = load i16, ptr %6, align 2
  %9 = zext i16 %8 to i32
  switch i32 %9, label %106 [
    i32 1, label %10
    i32 2, label %18
    i32 3, label %26
    i32 4, label %34
    i32 5, label %42
    i32 6, label %50
    i32 7, label %58
    i32 8, label %66
    i32 9, label %74
    i32 10, label %82
    i32 11, label %90
    i32 12, label %98
  ]

10:                                               ; preds = %3
  %11 = load ptr, ptr %4, align 8
  %12 = call i64 @PointerGetDatum(ptr noundef %11)
  %13 = load ptr, ptr %5, align 8
  %14 = call i64 @PointerGetDatum(ptr noundef %13)
  %15 = call i64 @DirectFunctionCall2Coll(ptr noundef @box_left, i32 noundef 0, i64 noundef %12, i64 noundef %14)
  %16 = call zeroext i1 @DatumGetBool(i64 noundef %15)
  %17 = zext i1 %16 to i8
  store i8 %17, ptr %7, align 1
  br label %119

18:                                               ; preds = %3
  %19 = load ptr, ptr %4, align 8
  %20 = call i64 @PointerGetDatum(ptr noundef %19)
  %21 = load ptr, ptr %5, align 8
  %22 = call i64 @PointerGetDatum(ptr noundef %21)
  %23 = call i64 @DirectFunctionCall2Coll(ptr noundef @box_overleft, i32 noundef 0, i64 noundef %20, i64 noundef %22)
  %24 = call zeroext i1 @DatumGetBool(i64 noundef %23)
  %25 = zext i1 %24 to i8
  store i8 %25, ptr %7, align 1
  br label %119

26:                                               ; preds = %3
  %27 = load ptr, ptr %4, align 8
  %28 = call i64 @PointerGetDatum(ptr noundef %27)
  %29 = load ptr, ptr %5, align 8
  %30 = call i64 @PointerGetDatum(ptr noundef %29)
  %31 = call i64 @DirectFunctionCall2Coll(ptr noundef @box_overlap, i32 noundef 0, i64 noundef %28, i64 noundef %30)
  %32 = call zeroext i1 @DatumGetBool(i64 noundef %31)
  %33 = zext i1 %32 to i8
  store i8 %33, ptr %7, align 1
  br label %119

34:                                               ; preds = %3
  %35 = load ptr, ptr %4, align 8
  %36 = call i64 @PointerGetDatum(ptr noundef %35)
  %37 = load ptr, ptr %5, align 8
  %38 = call i64 @PointerGetDatum(ptr noundef %37)
  %39 = call i64 @DirectFunctionCall2Coll(ptr noundef @box_overright, i32 noundef 0, i64 noundef %36, i64 noundef %38)
  %40 = call zeroext i1 @DatumGetBool(i64 noundef %39)
  %41 = zext i1 %40 to i8
  store i8 %41, ptr %7, align 1
  br label %119

42:                                               ; preds = %3
  %43 = load ptr, ptr %4, align 8
  %44 = call i64 @PointerGetDatum(ptr noundef %43)
  %45 = load ptr, ptr %5, align 8
  %46 = call i64 @PointerGetDatum(ptr noundef %45)
  %47 = call i64 @DirectFunctionCall2Coll(ptr noundef @box_right, i32 noundef 0, i64 noundef %44, i64 noundef %46)
  %48 = call zeroext i1 @DatumGetBool(i64 noundef %47)
  %49 = zext i1 %48 to i8
  store i8 %49, ptr %7, align 1
  br label %119

50:                                               ; preds = %3
  %51 = load ptr, ptr %4, align 8
  %52 = call i64 @PointerGetDatum(ptr noundef %51)
  %53 = load ptr, ptr %5, align 8
  %54 = call i64 @PointerGetDatum(ptr noundef %53)
  %55 = call i64 @DirectFunctionCall2Coll(ptr noundef @box_same, i32 noundef 0, i64 noundef %52, i64 noundef %54)
  %56 = call zeroext i1 @DatumGetBool(i64 noundef %55)
  %57 = zext i1 %56 to i8
  store i8 %57, ptr %7, align 1
  br label %119

58:                                               ; preds = %3
  %59 = load ptr, ptr %4, align 8
  %60 = call i64 @PointerGetDatum(ptr noundef %59)
  %61 = load ptr, ptr %5, align 8
  %62 = call i64 @PointerGetDatum(ptr noundef %61)
  %63 = call i64 @DirectFunctionCall2Coll(ptr noundef @box_contain, i32 noundef 0, i64 noundef %60, i64 noundef %62)
  %64 = call zeroext i1 @DatumGetBool(i64 noundef %63)
  %65 = zext i1 %64 to i8
  store i8 %65, ptr %7, align 1
  br label %119

66:                                               ; preds = %3
  %67 = load ptr, ptr %4, align 8
  %68 = call i64 @PointerGetDatum(ptr noundef %67)
  %69 = load ptr, ptr %5, align 8
  %70 = call i64 @PointerGetDatum(ptr noundef %69)
  %71 = call i64 @DirectFunctionCall2Coll(ptr noundef @box_contained, i32 noundef 0, i64 noundef %68, i64 noundef %70)
  %72 = call zeroext i1 @DatumGetBool(i64 noundef %71)
  %73 = zext i1 %72 to i8
  store i8 %73, ptr %7, align 1
  br label %119

74:                                               ; preds = %3
  %75 = load ptr, ptr %4, align 8
  %76 = call i64 @PointerGetDatum(ptr noundef %75)
  %77 = load ptr, ptr %5, align 8
  %78 = call i64 @PointerGetDatum(ptr noundef %77)
  %79 = call i64 @DirectFunctionCall2Coll(ptr noundef @box_overbelow, i32 noundef 0, i64 noundef %76, i64 noundef %78)
  %80 = call zeroext i1 @DatumGetBool(i64 noundef %79)
  %81 = zext i1 %80 to i8
  store i8 %81, ptr %7, align 1
  br label %119

82:                                               ; preds = %3
  %83 = load ptr, ptr %4, align 8
  %84 = call i64 @PointerGetDatum(ptr noundef %83)
  %85 = load ptr, ptr %5, align 8
  %86 = call i64 @PointerGetDatum(ptr noundef %85)
  %87 = call i64 @DirectFunctionCall2Coll(ptr noundef @box_below, i32 noundef 0, i64 noundef %84, i64 noundef %86)
  %88 = call zeroext i1 @DatumGetBool(i64 noundef %87)
  %89 = zext i1 %88 to i8
  store i8 %89, ptr %7, align 1
  br label %119

90:                                               ; preds = %3
  %91 = load ptr, ptr %4, align 8
  %92 = call i64 @PointerGetDatum(ptr noundef %91)
  %93 = load ptr, ptr %5, align 8
  %94 = call i64 @PointerGetDatum(ptr noundef %93)
  %95 = call i64 @DirectFunctionCall2Coll(ptr noundef @box_above, i32 noundef 0, i64 noundef %92, i64 noundef %94)
  %96 = call zeroext i1 @DatumGetBool(i64 noundef %95)
  %97 = zext i1 %96 to i8
  store i8 %97, ptr %7, align 1
  br label %119

98:                                               ; preds = %3
  %99 = load ptr, ptr %4, align 8
  %100 = call i64 @PointerGetDatum(ptr noundef %99)
  %101 = load ptr, ptr %5, align 8
  %102 = call i64 @PointerGetDatum(ptr noundef %101)
  %103 = call i64 @DirectFunctionCall2Coll(ptr noundef @box_overabove, i32 noundef 0, i64 noundef %100, i64 noundef %102)
  %104 = call zeroext i1 @DatumGetBool(i64 noundef %103)
  %105 = zext i1 %104 to i8
  store i8 %105, ptr %7, align 1
  br label %119

106:                                              ; preds = %3
  br label %107

107:                                              ; preds = %106
  br i1 true, label %108, label %110

108:                                              ; preds = %107
  %109 = call zeroext i1 @errstart_cold(i32 noundef 21, ptr noundef null) #11
  br i1 %109, label %112, label %116

110:                                              ; preds = %107
  %111 = call zeroext i1 @errstart(i32 noundef 21, ptr noundef null)
  br i1 %111, label %112, label %116

112:                                              ; preds = %110, %108
  %113 = load i16, ptr %6, align 2
  %114 = zext i16 %113 to i32
  %115 = call i32 (ptr, ...) @errmsg_internal(ptr noundef @.str, i32 noundef %114)
  call void @errfinish(ptr noundef @.str.1, i32 noundef 939, ptr noundef @__func__.gist_box_leaf_consistent)
  br label %116

116:                                              ; preds = %112, %110, %108
  unreachable

117:                                              ; No predecessors!
  br label %118

118:                                              ; preds = %117
  store i8 0, ptr %7, align 1
  br label %119

119:                                              ; preds = %118, %98, %90, %82, %74, %66, %58, %50, %42, %34, %26, %18, %10
  %120 = load i8, ptr %7, align 1, !range !4, !noundef !5
  %121 = trunc i8 %120 to i1
  call void @llvm.lifetime.end.p0(i64 1, ptr %7) #10
  ret i1 %121
}

; Function Attrs: inlinehint nounwind uwtable
define internal void @PageValidateSpecialPointer(ptr noundef %0) #2 {
  %2 = alloca ptr, align 8
  store ptr %0, ptr %2, align 8
  ret void
}

; Function Attrs: inlinehint nounwind uwtable
define internal i64 @BoolGetDatum(i1 noundef zeroext %0) #2 {
  %2 = alloca i8, align 1
  %3 = zext i1 %0 to i8
  store i8 %3, ptr %2, align 1
  %4 = load i8, ptr %2, align 1, !range !4, !noundef !5
  %5 = trunc i8 %4 to i1
  %6 = select i1 %5, i32 1, i32 0
  %7 = sext i32 %6 to i64
  ret i64 %7
}

; Function Attrs: inlinehint nounwind uwtable
define internal zeroext i16 @DatumGetUInt16(i64 noundef %0) #2 {
  %2 = alloca i64, align 8
  store i64 %0, ptr %2, align 8
  %3 = load i64, ptr %2, align 8
  %4 = trunc i64 %3 to i16
  ret i16 %4
}

; Function Attrs: inlinehint nounwind uwtable
define internal ptr @DatumGetBoxP(i64 noundef %0) #2 {
  %2 = alloca i64, align 8
  store i64 %0, ptr %2, align 8
  %3 = load i64, ptr %2, align 8
  %4 = call ptr @DatumGetPointer(i64 noundef %3)
  ret ptr %4
}

; Function Attrs: inlinehint nounwind uwtable
define internal ptr @DatumGetPointer(i64 noundef %0) #2 {
  %2 = alloca i64, align 8
  store i64 %0, ptr %2, align 8
  %3 = load i64, ptr %2, align 8
  %4 = inttoptr i64 %3 to ptr
  ret ptr %4
}

; Function Attrs: nounwind uwtable
define dso_local i64 @gist_box_consistent(ptr noundef %0) #0 {
  %2 = alloca i64, align 8
  %3 = alloca ptr, align 8
  %4 = alloca ptr, align 8
  %5 = alloca ptr, align 8
  %6 = alloca i16, align 2
  %7 = alloca ptr, align 8
  %8 = alloca i32, align 4
  store ptr %0, ptr %3, align 8
  call void @llvm.lifetime.start.p0(i64 8, ptr %4) #10
  %9 = load ptr, ptr %3, align 8
  %10 = getelementptr inbounds nuw %struct.FunctionCallInfoBaseData, ptr %9, i32 0, i32 6
  %11 = getelementptr inbounds [0 x %struct.NullableDatum], ptr %10, i64 0, i64 0
  %12 = getelementptr inbounds nuw %struct.NullableDatum, ptr %11, i32 0, i32 0
  %13 = load i64, ptr %12, align 8
  %14 = call ptr @DatumGetPointer(i64 noundef %13)
  store ptr %14, ptr %4, align 8
  call void @llvm.lifetime.start.p0(i64 8, ptr %5) #10
  %15 = load ptr, ptr %3, align 8
  %16 = getelementptr inbounds nuw %struct.FunctionCallInfoBaseData, ptr %15, i32 0, i32 6
  %17 = getelementptr inbounds [0 x %struct.NullableDatum], ptr %16, i64 0, i64 1
  %18 = getelementptr inbounds nuw %struct.NullableDatum, ptr %17, i32 0, i32 0
  %19 = load i64, ptr %18, align 8
  %20 = call ptr @DatumGetBoxP(i64 noundef %19)
  store ptr %20, ptr %5, align 8
  call void @llvm.lifetime.start.p0(i64 2, ptr %6) #10
  %21 = load ptr, ptr %3, align 8
  %22 = getelementptr inbounds nuw %struct.FunctionCallInfoBaseData, ptr %21, i32 0, i32 6
  %23 = getelementptr inbounds [0 x %struct.NullableDatum], ptr %22, i64 0, i64 2
  %24 = getelementptr inbounds nuw %struct.NullableDatum, ptr %23, i32 0, i32 0
  %25 = load i64, ptr %24, align 8
  %26 = call zeroext i16 @DatumGetUInt16(i64 noundef %25)
  store i16 %26, ptr %6, align 2
  call void @llvm.lifetime.start.p0(i64 8, ptr %7) #10
  %27 = load ptr, ptr %3, align 8
  %28 = getelementptr inbounds nuw %struct.FunctionCallInfoBaseData, ptr %27, i32 0, i32 6
  %29 = getelementptr inbounds [0 x %struct.NullableDatum], ptr %28, i64 0, i64 4
  %30 = getelementptr inbounds nuw %struct.NullableDatum, ptr %29, i32 0, i32 0
  %31 = load i64, ptr %30, align 8
  %32 = call ptr @DatumGetPointer(i64 noundef %31)
  store ptr %32, ptr %7, align 8
  %33 = load ptr, ptr %7, align 8
  store i8 0, ptr %33, align 1
  %34 = load ptr, ptr %4, align 8
  %35 = getelementptr inbounds nuw %struct.GISTENTRY, ptr %34, i32 0, i32 0
  %36 = load i64, ptr %35, align 8
  %37 = call ptr @DatumGetBoxP(i64 noundef %36)
  %38 = icmp eq ptr %37, null
  br i1 %38, label %42, label %39

39:                                               ; preds = %1
  %40 = load ptr, ptr %5, align 8
  %41 = icmp eq ptr %40, null
  br i1 %41, label %42, label %44

42:                                               ; preds = %39, %1
  %43 = call i64 @BoolGetDatum(i1 noundef zeroext false)
  store i64 %43, ptr %2, align 8
  store i32 1, ptr %8, align 4
  br label %82

44:                                               ; preds = %39
  %45 = load ptr, ptr %4, align 8
  %46 = getelementptr inbounds nuw %struct.GISTENTRY, ptr %45, i32 0, i32 2
  %47 = load ptr, ptr %46, align 8
  call void @PageValidateSpecialPointer(ptr noundef %47)
  %48 = load ptr, ptr %4, align 8
  %49 = getelementptr inbounds nuw %struct.GISTENTRY, ptr %48, i32 0, i32 2
  %50 = load ptr, ptr %49, align 8
  %51 = load ptr, ptr %4, align 8
  %52 = getelementptr inbounds nuw %struct.GISTENTRY, ptr %51, i32 0, i32 2
  %53 = load ptr, ptr %52, align 8
  %54 = getelementptr inbounds nuw %struct.PageHeaderData, ptr %53, i32 0, i32 5
  %55 = load i16, ptr %54, align 4
  %56 = zext i16 %55 to i32
  %57 = sext i32 %56 to i64
  %58 = getelementptr inbounds i8, ptr %50, i64 %57
  %59 = getelementptr inbounds nuw %struct.GISTPageOpaqueData, ptr %58, i32 0, i32 2
  %60 = load i16, ptr %59, align 4
  %61 = zext i16 %60 to i32
  %62 = and i32 %61, 1
  %63 = icmp ne i32 %62, 0
  br i1 %63, label %64, label %73

64:                                               ; preds = %44
  %65 = load ptr, ptr %4, align 8
  %66 = getelementptr inbounds nuw %struct.GISTENTRY, ptr %65, i32 0, i32 0
  %67 = load i64, ptr %66, align 8
  %68 = call ptr @DatumGetBoxP(i64 noundef %67)
  %69 = load ptr, ptr %5, align 8
  %70 = load i16, ptr %6, align 2
  %71 = call zeroext i1 @gist_box_leaf_consistent(ptr noundef %68, ptr noundef %69, i16 noundef zeroext %70)
  %72 = call i64 @BoolGetDatum(i1 noundef zeroext %71)
  store i64 %72, ptr %2, align 8
  store i32 1, ptr %8, align 4
  br label %82

73:                                               ; preds = %44
  %74 = load ptr, ptr %4, align 8
  %75 = getelementptr inbounds nuw %struct.GISTENTRY, ptr %74, i32 0, i32 0
  %76 = load i64, ptr %75, align 8
  %77 = call ptr @DatumGetBoxP(i64 noundef %76)
  %78 = load ptr, ptr %5, align 8
  %79 = load i16, ptr %6, align 2
  %80 = call zeroext i1 @rtree_internal_consistent(ptr noundef %77, ptr noundef %78, i16 noundef zeroext %79)
  %81 = call i64 @BoolGetDatum(i1 noundef zeroext %80)
  store i64 %81, ptr %2, align 8
  store i32 1, ptr %8, align 4
  br label %82

82:                                               ; preds = %73, %64, %42
  call void @llvm.lifetime.end.p0(i64 8, ptr %7) #10
  call void @llvm.lifetime.end.p0(i64 2, ptr %6) #10
  call void @llvm.lifetime.end.p0(i64 8, ptr %5) #10
  call void @llvm.lifetime.end.p0(i64 8, ptr %4) #10
  %83 = load i64, ptr %2, align 8
  ret i64 %83
}