; Function Attrs: nounwind uwtable
define dso_local range(i64 0, 2) i64 @gist_box_consistent(ptr noundef readonly captures(none) %0) local_unnamed_addr #0 {
  %2 = getelementptr inbounds nuw i8, ptr %0, i64 32
  %3 = load i64, ptr %2, align 8
  %4 = inttoptr i64 %3 to ptr
  %5 = getelementptr inbounds nuw i8, ptr %0, i64 48
  %6 = load i64, ptr %5, align 8
  %7 = inttoptr i64 %6 to ptr
  %8 = getelementptr inbounds nuw i8, ptr %0, i64 64
  %9 = load i64, ptr %8, align 8
  %10 = trunc i64 %9 to i16
  %11 = getelementptr inbounds nuw i8, ptr %0, i64 96
  %12 = load i64, ptr %11, align 8
  %13 = inttoptr i64 %12 to ptr
  store i8 0, ptr %13, align 1
  %14 = load i64, ptr %4, align 8
  %15 = inttoptr i64 %14 to ptr
  %16 = icmp eq i64 %14, 0
  %17 = icmp eq i64 %6, 0
  %or.cond = select i1 %16, i1 true, i1 %17
  br i1 %or.cond, label %39, label %18

18:                                               ; preds = %1
  %19 = getelementptr inbounds nuw i8, ptr %4, i64 16
  %20 = load ptr, ptr %19, align 8
  %21 = getelementptr inbounds nuw i8, ptr %20, i64 16
  %22 = load i16, ptr %21, align 4
  %23 = zext i16 %22 to i64
  %24 = getelementptr inbounds nuw i8, ptr %20, i64 %23
  %25 = getelementptr inbounds nuw i8, ptr %24, i64 12
  %26 = load i16, ptr %25, align 4
  %27 = and i16 %26, 1
  %.not = icmp eq i16 %27, 0
  br i1 %.not, label %37, label %28

28:                                               ; preds = %18
  %switch.tableidx = add i16 %10, -1
  %29 = icmp ult i16 %switch.tableidx, 12
  br i1 %29, label %switch.lookup, label %30

30:                                               ; preds = %28
  %31 = trunc i64 %9 to i32
  %32 = and i32 %31, 65535
  %33 = tail call zeroext i1 @errstart_cold(i32 noundef 21, ptr noundef null) #15
  tail call void @llvm.assume(i1 %33)
  %34 = tail call i32 (ptr, ...) @errmsg_internal(ptr noundef nonnull @.str, i32 noundef %32) #16
  tail call void @errfinish(ptr noundef nonnull @.str.1, i32 noundef 939, ptr noundef nonnull @__func__.gist_box_leaf_consistent) #16
  unreachable

switch.lookup:                                    ; preds = %28
  %35 = zext nneg i16 %switch.tableidx to i64
  %switch.gep = getelementptr inbounds nuw [12 x ptr], ptr @switch.table.gist_box_consistent, i64 0, i64 %35
  %switch.load = load ptr, ptr %switch.gep, align 8
  %36 = tail call i64 @DirectFunctionCall2Coll(ptr noundef nonnull %switch.load, i32 noundef 0, i64 noundef %14, i64 noundef %6) #16
  %.0.in.i = icmp ne i64 %36, 0
  br label %39

37:                                               ; preds = %18
  %38 = tail call fastcc zeroext i1 @rtree_internal_consistent(ptr noundef nonnull %15, ptr noundef %7, i16 noundef zeroext %10)
  br label %39

39:                                               ; preds = %1, %37, %switch.lookup
  %.0.shrunk = phi i1 [ %.0.in.i, %switch.lookup ], [ %38, %37 ], [ false, %1 ]
  %.0 = zext i1 %.0.shrunk to i64
  ret i64 %.0
}